target datalayout = "e-m:e-p270:32:32-p271:32:32-p272:64:64-i64:64-i128:128-f80:128-n8:16:32:64-S128"
target triple = "x86_64-pc-linux-gnu"

%struct.FunctionCallInfoBaseData = type { ptr, ptr, ptr, i32, i8, i16, [0 x %struct.NullableDatum] }
%struct.NullableDatum = type { i64, i8 }

; Function Attrs: inlinehint nounwind uwtable
define internal i64 @PointerGetDatum(ptr noundef %0) #3 {
  %2 = alloca ptr, align 8
  store ptr %0, ptr %2, align 8
  %3 = load ptr, ptr %2, align 8
  %4 = ptrtoint ptr %3 to i64
  ret i64 %4
}

; Function Attrs: inlinehint nounwind uwtable
define internal ptr @DatumGetPointer(i64 noundef %0) #3 {
  %2 = alloca i64, align 8
  store i64 %0, ptr %2, align 8
  %3 = load i64, ptr %2, align 8
  %4 = inttoptr i64 %3 to ptr
  ret ptr %4
}

; Function Attrs: nounwind uwtable
define dso_local i64 @json_object_field_text(ptr noundef %0) #0 {
  %2 = alloca i64, align 8
  %3 = alloca ptr, align 8
  %4 = alloca ptr, align 8
  %5 = alloca ptr, align 8
  %6 = alloca ptr, align 8
  %7 = alloca ptr, align 8
  %8 = alloca i32, align 4
  store ptr %0, ptr %3, align 8
  call void @llvm.lifetime.start.p0(i64 8, ptr %4) #10
  %9 = load ptr, ptr %3, align 8
  %10 = getelementptr inbounds nuw %struct.FunctionCallInfoBaseData, ptr %9, i32 0, i32 6
  %11 = getelementptr inbounds [0 x %struct.NullableDatum], ptr %10, i64 0, i64 0
  %12 = getelementptr inbounds nuw %struct.NullableDatum, ptr %11, i32 0, i32 0
  %13 = load i64, ptr %12, align 8
  %14 = call ptr @DatumGetPointer(i64 noundef %13)
  %15 = call ptr @pg_detoast_datum_packed(ptr noundef %14)
  store ptr %15, ptr %4, align 8
  call void @llvm.lifetime.start.p0(i64 8, ptr %5) #10
  %16 = load ptr, ptr %3, align 8
  %17 = getelementptr inbounds nuw %struct.FunctionCallInfoBaseData, ptr %16, i32 0, i32 6
  %18 = getelementptr inbounds [0 x %struct.NullableDatum], ptr %17, i64 0, i64 1
  %19 = getelementptr inbounds nuw %struct.NullableDatum, ptr %18, i32 0, i32 0
  %20 = load i64, ptr %19, align 8
  %21 = call ptr @DatumGetPointer(i64 noundef %20)
  %22 = call ptr @pg_detoast_datum_packed(ptr noundef %21)
  store ptr %22, ptr %5, align 8
  call void @llvm.lifetime.start.p0(i64 8, ptr %6) #10
  %23 = load ptr, ptr %5, align 8
  %24 = call ptr @text_to_cstring(ptr noundef %23)
  store ptr %24, ptr %6, align 8
  call void @llvm.lifetime.start.p0(i64 8, ptr %7) #10
  %25 = load ptr, ptr %4, align 8
  %26 = call ptr @get_worker(ptr noundef %25, ptr noundef %6, ptr noundef null, i32 noundef 1, i1 noundef zeroext true)
  store ptr %26, ptr %7, align 8
  %27 = load ptr, ptr %7, align 8
  %28 = icmp ne ptr %27, null
  br i1 %28, label %29, label %32

29:                                               ; preds = %1
  %30 = load ptr, ptr %7, align 8
  %31 = call i64 @PointerGetDatum(ptr noundef %30)
  store i64 %31, ptr %2, align 8
  store i32 1, ptr %8, align 4
  br label %39

32:                                               ; preds = %1
  br label %33

33:                                               ; preds = %32
  %34 = load ptr, ptr %3, align 8
  %35 = getelementptr inbounds nuw %struct.FunctionCallInfoBaseData, ptr %34, i32 0, i32 4
  store i8 1, ptr %35, align 4
  store i64 0, ptr %2, align 8
  store i32 1, ptr %8, align 4
  br label %39

36:                                               ; No predecessors!
  br label %37

37:                                               ; preds = %36
  br label %38

38:                                               ; preds = %37
  store i32 0, ptr %8, align 4
  br label %39

39:                                               ; preds = %38, %33, %29
  call void @llvm.lifetime.end.p0(i64 8, ptr %7) #10
  call void @llvm.lifetime.end.p0(i64 8, ptr %6) #10
  call void @llvm.lifetime.end.p0(i64 8, ptr %5) #10
  call void @llvm.lifetime.end.p0(i64 8, ptr %4) #10
  %40 = load i32, ptr %8, align 4
  switch i32 %40, label %43 [
    i32 0, label %41
    i32 1, label %41
  ]

41:                                               ; preds = %39, %39
  %42 = load i64, ptr %2, align 8
  ret i64 %42

43:                                               ; preds = %39
  unreachable
}